; Function Attrs: mustprogress uwtable
define void @_Z9writecmapRKNSt10filesystem7__cxx114pathEiPK9t_mapping(ptr noundef nonnull align 8 dereferenceable(40) %0, i32 noundef %1, ptr noundef %2) local_unnamed_addr #0 {
  %4 = tail call noundef ptr @_Z13gmx_fio_fopenRKNSt10filesystem7__cxx114pathEPKc(ptr noundef nonnull align 8 dereferenceable(40) %0, ptr noundef nonnull @.str.13)
  %5 = tail call i32 (ptr, ptr, ...) @fprintf(ptr noundef %4, ptr noundef nonnull @.str.11, i32 noundef %1) #24
  %6 = icmp sgt i32 %1, 0
  br i1 %6, label %.lr.ph.preheader.i, label %_Z9printcmapP8_IO_FILEiPK9t_mapping.exit

.lr.ph.preheader.i:                               ; preds = %3
  %wide.trip.count.i = zext nneg i32 %1 to i64
  br label %.lr.ph.i

.lr.ph.i:                                         ; preds = %.lr.ph.i, %.lr.ph.preheader.i
  %indvars.iv.i = phi i64 [ 0, %.lr.ph.preheader.i ], [ %indvars.iv.next.i, %.lr.ph.i ]
  %7 = getelementptr inbounds %struct.t_mapping, ptr %2, i64 %indvars.iv.i
  %8 = load i8, ptr %7, align 8
  %.not.i = icmp eq i8 %8, 0
  %spec.select.i = select i1 %.not.i, i8 32, i8 %8
  %9 = sext i8 %spec.select.i to i32
  %10 = getelementptr inbounds i8, ptr %7, i64 1
  %11 = load i8, ptr %10, align 1
  %.not23.i = icmp eq i8 %11, 0
  %12 = select i1 %.not23.i, i8 32, i8 %11
  %13 = sext i8 %12 to i32
  %14 = getelementptr inbounds i8, ptr %7, i64 8
  %15 = tail call noundef ptr @_ZNKSt7__cxx1112basic_stringIcSt11char_traitsIcESaIcEE5c_strEv(ptr noundef nonnull align 8 dereferenceable(32) %14) #24
  %16 = getelementptr inbounds i8, ptr %7, i64 40
  %17 = load double, ptr %16, align 8
  %18 = getelementptr inbounds i8, ptr %7, i64 48
  %19 = load double, ptr %18, align 8
  %20 = getelementptr inbounds i8, ptr %7, i64 56
  %21 = load double, ptr %20, align 8
  %22 = tail call i32 (ptr, ptr, ...) @fprintf(ptr noundef %4, ptr noundef nonnull @.str.12, i32 noundef %9, i32 noundef %13, ptr noundef %15, double noundef %17, double noundef %19, double noundef %21) #24
  %indvars.iv.next.i = add nuw nsw i64 %indvars.iv.i, 1
  %exitcond.not.i = icmp eq i64 %indvars.iv.next.i, %wide.trip.count.i
  br i1 %exitcond.not.i, label %_Z9printcmapP8_IO_FILEiPK9t_mapping.exit, label %.lr.ph.i, !llvm.loop !25

_Z9printcmapP8_IO_FILEiPK9t_mapping.exit:         ; preds = %.lr.ph.i, %3
  %23 = tail call noundef i32 @_Z14gmx_fio_fcloseP8_IO_FILE(ptr noundef %4)
  ret void
}